; Function Attrs: mustprogress nounwind uwtable
define internal fastcc void @_ZN12_GLOBAL__N_113code_tree_mapD2Ev(ptr nocapture noundef nonnull readonly align 8 dereferenceable(32) %this) unnamed_addr #5 align 2 personality ptr @__gxx_personality_v0 {
entry:
  %m_trees = getelementptr inbounds i8, ptr %this, i64 16
  %m_trees.val1 = load ptr, ptr %m_trees, align 8
  %cmp.i.i = icmp eq ptr %m_trees.val1, null
  br i1 %cmp.i.i, label %_ZN10ptr_vectorIN12_GLOBAL__N_19code_treeEED2Ev.exit, label %invoke.cont3

invoke.cont3:                                     ; preds = %entry
  %arrayidx.i.i = getelementptr inbounds i8, ptr %m_trees.val1, i64 -4
  %0 = load i32, ptr %arrayidx.i.i, align 4
  %1 = zext i32 %0 to i64
  %add.ptr.i = getelementptr inbounds ptr, ptr %m_trees.val1, i64 %1
  %cmp.not3.i = icmp eq i32 %0, 0
  br i1 %cmp.not3.i, label %if.then.i.i.i, label %for.body.i

for.body.i:                                       ; preds = %invoke.cont3, %_ZN11delete_procIN12_GLOBAL__N_19code_treeEEclEPS1_.exit.i
  %__first.addr.04.i = phi ptr [ %incdec.ptr.i, %_ZN11delete_procIN12_GLOBAL__N_19code_treeEEclEPS1_.exit.i ], [ %m_trees.val1, %invoke.cont3 ]
  %2 = load ptr, ptr %__first.addr.04.i, align 8
  %tobool.not.i.i = icmp eq ptr %2, null
  br i1 %tobool.not.i.i, label %_ZN11delete_procIN12_GLOBAL__N_19code_treeEEclEPS1_.exit.i, label %if.end.i.i.i

if.end.i.i.i:                                     ; preds = %for.body.i
  %3 = getelementptr i8, ptr %2, i64 40
  %ptr.val.i.i.i = load ptr, ptr %3, align 8
  %tobool.not.i.i.i.i.i.i.i = icmp eq ptr %ptr.val.i.i.i, null
  br i1 %tobool.not.i.i.i.i.i.i.i, label %_Z7deallocIN12_GLOBAL__N_19code_treeEEvPT_.exit.i.i, label %if.then.i.i.i.i.i.i.i

if.then.i.i.i.i.i.i.i:                            ; preds = %if.end.i.i.i
  %add.ptr.i.i.i.i.i.i.i.i = getelementptr inbounds i8, ptr %ptr.val.i.i.i, i64 -8
  invoke void @_ZN6memory10deallocateEPv(ptr noundef nonnull %add.ptr.i.i.i.i.i.i.i.i)
          to label %_Z7deallocIN12_GLOBAL__N_19code_treeEEvPT_.exit.i.i unwind label %terminate.lpad.i.i.i.i.i.i

terminate.lpad.i.i.i.i.i.i:                       ; preds = %if.then.i.i.i.i.i.i.i
  %4 = landingpad { ptr, i32 }
          catch ptr null
  %5 = extractvalue { ptr, i32 } %4, 0
  tail call void @__clang_call_terminate(ptr %5) #22
  unreachable

_Z7deallocIN12_GLOBAL__N_19code_treeEEvPT_.exit.i.i: ; preds = %if.then.i.i.i.i.i.i.i, %if.end.i.i.i
  invoke void @_ZN6memory10deallocateEPv(ptr noundef nonnull %2)
          to label %_ZN11delete_procIN12_GLOBAL__N_19code_treeEEclEPS1_.exit.i unwind label %terminate.lpad

_ZN11delete_procIN12_GLOBAL__N_19code_treeEEclEPS1_.exit.i: ; preds = %_Z7deallocIN12_GLOBAL__N_19code_treeEEvPT_.exit.i.i, %for.body.i
  %incdec.ptr.i = getelementptr inbounds i8, ptr %__first.addr.04.i, i64 8
  %cmp.not.i = icmp eq ptr %incdec.ptr.i, %add.ptr.i
  br i1 %cmp.not.i, label %invoke.cont5, label %for.body.i, !llvm.loop !10

invoke.cont5:                                     ; preds = %_ZN11delete_procIN12_GLOBAL__N_19code_treeEEclEPS1_.exit.i
  %m_trees.val.pre = load ptr, ptr %m_trees, align 8
  %tobool.not.i.i.i = icmp eq ptr %m_trees.val.pre, null
  br i1 %tobool.not.i.i.i, label %_ZN10ptr_vectorIN12_GLOBAL__N_19code_treeEED2Ev.exit, label %if.then.i.i.i

if.then.i.i.i:                                    ; preds = %invoke.cont3, %invoke.cont5
  %m_trees.val12 = phi ptr [ %m_trees.val.pre, %invoke.cont5 ], [ %m_trees.val1, %invoke.cont3 ]
  %add.ptr.i.i.i.i = getelementptr inbounds i8, ptr %m_trees.val12, i64 -8
  invoke void @_ZN6memory10deallocateEPv(ptr noundef nonnull %add.ptr.i.i.i.i)
          to label %_ZN10ptr_vectorIN12_GLOBAL__N_19code_treeEED2Ev.exit unwind label %terminate.lpad.i.i

terminate.lpad.i.i:                               ; preds = %if.then.i.i.i
  %6 = landingpad { ptr, i32 }
          catch ptr null
  %7 = extractvalue { ptr, i32 } %6, 0
  tail call void @__clang_call_terminate(ptr %7) #22
  unreachable

_ZN10ptr_vectorIN12_GLOBAL__N_19code_treeEED2Ev.exit: ; preds = %entry, %invoke.cont5, %if.then.i.i.i
  ret void

terminate.lpad:                                   ; preds = %_Z7deallocIN12_GLOBAL__N_19code_treeEEvPT_.exit.i.i
  %8 = landingpad { ptr, i32 }
          catch ptr null
  %9 = extractvalue { ptr, i32 } %8, 0
  tail call void @__clang_call_terminate(ptr %9) #22
  unreachable
}